; ModuleID = '30/198.c'
source_filename = "30/198.c"
target datalayout = "e-m:e-p270:32:32-p271:32:32-p272:64:64-i64:64-f80:128-n8:16:32:64-S128"
target triple = "x86_64-pc-linux-gnu"

@.str = private unnamed_addr constant [3 x i8] c"%d\00", align 1
@.str.1 = private unnamed_addr constant [2 x i8] c"\0A\00", align 1

; Function Attrs: noinline nounwind uwtable
define dso_local i32 @main() #0 {
  %1 = alloca i32, align 4
  %2 = alloca i32, align 4
  %3 = alloca i32, align 4
  %4 = alloca i32, align 4
  %5 = alloca [100 x i32], align 16
  %6 = alloca i32, align 4
  %7 = alloca i32, align 4
  %8 = alloca i32, align 4
  store i32 0, i32* %1, align 4
  store i32 0, i32* %4, align 4
  %9 = call i32 (i8*, ...) @__isoc99_scanf(i8* getelementptr inbounds ([3 x i8], [3 x i8]* @.str, i64 0, i64 0), i32* %2)
  %10 = call i32 (i8*, ...) @printf(i8* getelementptr inbounds ([2 x i8], [2 x i8]* @.str.1, i64 0, i64 0))
  store i32 0, i32* %8, align 4
  store i32 1, i32* %3, align 4
  br label %11

11:                                               ; preds = %38, %0
  %12 = load i32, i32* %3, align 4
  %13 = load i32, i32* %2, align 4
  %14 = icmp sle i32 %12, %13
  br i1 %14, label %15, label %41

15:                                               ; preds = %11
  %16 = load i32, i32* %3, align 4
  %17 = srem i32 %16, 10
  store i32 %17, i32* %6, align 4
  %18 = load i32, i32* %3, align 4
  %19 = load i32, i32* %6, align 4
  %20 = sub nsw i32 %18, %19
  %21 = sdiv i32 %20, 10
  store i32 %21, i32* %7, align 4
  %22 = load i32, i32* %3, align 4
  %23 = srem i32 %22, 7
  %24 = icmp ne i32 %23, 0
  br i1 %24, label %25, label %37

25:                                               ; preds = %15
  %26 = load i32, i32* %6, align 4
  %27 = icmp ne i32 %26, 7
  br i1 %27, label %28, label %37

28:                                               ; preds = %25
  %29 = load i32, i32* %7, align 4
  %30 = icmp ne i32 %29, 7
  br i1 %30, label %31, label %37

31:                                               ; preds = %28
  %32 = load i32, i32* %3, align 4
  %33 = load i32, i32* %3, align 4
  %34 = mul nsw i32 %32, %33
  %35 = load i32, i32* %8, align 4
  %36 = add nsw i32 %35, %34
  store i32 %36, i32* %8, align 4
  br label %37

37:                                               ; preds = %31, %28, %25, %15
  br label %38

38:                                               ; preds = %37
  %39 = load i32, i32* %3, align 4
  %40 = add nsw i32 %39, 1
  store i32 %40, i32* %3, align 4
  br label %11

41:                                               ; preds = %11
  %42 = load i32, i32* %8, align 4
  %43 = call i32 (i8*, ...) @printf(i8* getelementptr inbounds ([3 x i8], [3 x i8]* @.str, i64 0, i64 0), i32 %42)
  ret i32 0
}

declare dso_local i32 @__isoc99_scanf(i8*, ...) #1

declare dso_local i32 @printf(i8*, ...) #1


!llvm.module.flags = !{!0}
!llvm.ident = !{!1}

!0 = !{i32 1, !"wchar_size", i32 4}
!1 = !{!"clang version 10.0.0-4ubuntu1 "}
